target datalayout = "e-m:e-p270:32:32-p271:32:32-p272:64:64-i64:64-i128:128-f80:128-n8:16:32:64-S128"
target triple = "x86_64-pc-linux-gnu"

%class.ext_numeral = type { i32, %class.rational }
%class.rational = type { %class.mpq }
%class.mpq = type { %class.mpz, %class.mpz }
%class.mpz = type { i32, i8, ptr }

@_ZN8rational13g_mpq_managerE = external global ptr, align 8

; Function Attrs: inlinehint mustprogress nounwind uwtable
define linkonce_odr hidden noundef zeroext i1 @_ZNK3mpz8is_smallEv(ptr noundef nonnull align 8 dereferenceable(16) %0) #8 comdat align 2 {
  %2 = alloca ptr, align 8
  store ptr %0, ptr %2, align 8, !tbaa !62
  %3 = load ptr, ptr %2, align 8
  %4 = getelementptr inbounds nuw %class.mpz, ptr %3, i32 0, i32 1
  %5 = load i8, ptr %4, align 4
  %6 = and i8 %5, 1
  %7 = zext i8 %6 to i32
  %8 = icmp eq i32 %7, 0
  ret i1 %8
}

; Function Attrs: inlinehint mustprogress nounwind uwtable
define linkonce_odr hidden noundef i32 @_ZNK3mpz5valueEv(ptr noundef nonnull align 8 dereferenceable(16) %0) #8 comdat align 2 {
  %2 = alloca ptr, align 8
  store ptr %0, ptr %2, align 8, !tbaa !62
  %3 = load ptr, ptr %2, align 8
  %4 = getelementptr inbounds nuw %class.mpz, ptr %3, i32 0, i32 0
  %5 = load i32, ptr %4, align 8, !tbaa !64
  ret i32 %5
}

; Function Attrs: mustprogress uwtable
define linkonce_odr hidden noundef zeroext i1 @_ZN11mpz_managerILb1EE8is_smallERK3mpz(ptr noundef nonnull align 8 dereferenceable(16) %0) #4 comdat align 2 {
  %2 = alloca ptr, align 8
  store ptr %0, ptr %2, align 8, !tbaa !62
  %3 = load ptr, ptr %2, align 8, !tbaa !62
  %4 = call noundef zeroext i1 @_ZNK3mpz8is_smallEv(ptr noundef nonnull align 8 dereferenceable(16) %3)
  ret i1 %4
}

; Function Attrs: mustprogress uwtable
define linkonce_odr hidden noundef zeroext i1 @_ZN11mpz_managerILb1EE6is_oneERK3mpz(ptr noundef nonnull align 8 dereferenceable(16) %0) #4 comdat align 2 {
  %2 = alloca ptr, align 8
  store ptr %0, ptr %2, align 8, !tbaa !62
  %3 = load ptr, ptr %2, align 8, !tbaa !62
  %4 = call noundef zeroext i1 @_ZN11mpz_managerILb1EE8is_smallERK3mpz(ptr noundef nonnull align 8 dereferenceable(16) %3)
  br i1 %4, label %5, label %9

5:                                                ; preds = %1
  %6 = load ptr, ptr %2, align 8, !tbaa !62
  %7 = call noundef i32 @_ZNK3mpz5valueEv(ptr noundef nonnull align 8 dereferenceable(16) %6)
  %8 = icmp eq i32 %7, 1
  br label %9

9:                                                ; preds = %5, %1
  %10 = phi i1 [ false, %1 ], [ %8, %5 ]
  ret i1 %10
}

; Function Attrs: mustprogress uwtable
define linkonce_odr hidden noundef zeroext i1 @_ZN11mpz_managerILb1EE2ltERK3mpzS3_(ptr noundef nonnull align 8 dereferenceable(600) %0, ptr noundef nonnull align 8 dereferenceable(16) %1, ptr noundef nonnull align 8 dereferenceable(16) %2) #4 comdat align 2 {
  %4 = alloca i1, align 1
  %5 = alloca ptr, align 8
  %6 = alloca ptr, align 8
  %7 = alloca ptr, align 8
  store ptr %0, ptr %5, align 8, !tbaa !65
  store ptr %1, ptr %6, align 8, !tbaa !62
  store ptr %2, ptr %7, align 8, !tbaa !62
  %8 = load ptr, ptr %5, align 8
  %9 = load ptr, ptr %6, align 8, !tbaa !62
  %10 = call noundef zeroext i1 @_ZN11mpz_managerILb1EE8is_smallERK3mpz(ptr noundef nonnull align 8 dereferenceable(16) %9)
  br i1 %10, label %11, label %20

11:                                               ; preds = %3
  %12 = load ptr, ptr %7, align 8, !tbaa !62
  %13 = call noundef zeroext i1 @_ZN11mpz_managerILb1EE8is_smallERK3mpz(ptr noundef nonnull align 8 dereferenceable(16) %12)
  br i1 %13, label %14, label %20

14:                                               ; preds = %11
  %15 = load ptr, ptr %6, align 8, !tbaa !62
  %16 = call noundef i32 @_ZNK3mpz5valueEv(ptr noundef nonnull align 8 dereferenceable(16) %15)
  %17 = load ptr, ptr %7, align 8, !tbaa !62
  %18 = call noundef i32 @_ZNK3mpz5valueEv(ptr noundef nonnull align 8 dereferenceable(16) %17)
  %19 = icmp slt i32 %16, %18
  store i1 %19, ptr %4, align 1
  br label %25

20:                                               ; preds = %11, %3
  %21 = load ptr, ptr %6, align 8, !tbaa !62
  %22 = load ptr, ptr %7, align 8, !tbaa !62
  %23 = call noundef i32 @_ZN11mpz_managerILb1EE11big_compareERK3mpzS3_(ptr noundef nonnull align 8 dereferenceable(600) %8, ptr noundef nonnull align 8 dereferenceable(16) %21, ptr noundef nonnull align 8 dereferenceable(16) %22)
  %24 = icmp slt i32 %23, 0
  store i1 %24, ptr %4, align 1
  br label %25

25:                                               ; preds = %20, %14
  %26 = load i1, ptr %4, align 1
  ret i1 %26
}

; Function Attrs: mustprogress uwtable
define linkonce_odr hidden noundef zeroext i1 @_ZN11mpq_managerILb1EE6is_oneERK3mpz(ptr noundef nonnull align 8 dereferenceable(16) %0) #4 comdat align 2 {
  %2 = alloca ptr, align 8
  store ptr %0, ptr %2, align 8, !tbaa !62
  %3 = load ptr, ptr %2, align 8, !tbaa !62
  %4 = call noundef zeroext i1 @_ZN11mpz_managerILb1EE6is_oneERK3mpz(ptr noundef nonnull align 8 dereferenceable(16) %3)
  ret i1 %4
}

; Function Attrs: mustprogress uwtable
define linkonce_odr hidden noundef zeroext i1 @_ZN11mpq_managerILb1EE2ltERK3mpzS3_(ptr noundef nonnull align 8 dereferenceable(728) %0, ptr noundef nonnull align 8 dereferenceable(16) %1, ptr noundef nonnull align 8 dereferenceable(16) %2) #4 comdat align 2 {
  %4 = alloca ptr, align 8
  %5 = alloca ptr, align 8
  %6 = alloca ptr, align 8
  store ptr %0, ptr %4, align 8, !tbaa !19
  store ptr %1, ptr %5, align 8, !tbaa !62
  store ptr %2, ptr %6, align 8, !tbaa !62
  %7 = load ptr, ptr %4, align 8
  %8 = load ptr, ptr %5, align 8, !tbaa !62
  %9 = load ptr, ptr %6, align 8, !tbaa !62
  %10 = call noundef zeroext i1 @_ZN11mpz_managerILb1EE2ltERK3mpzS3_(ptr noundef nonnull align 8 dereferenceable(600) %7, ptr noundef nonnull align 8 dereferenceable(16) %8, ptr noundef nonnull align 8 dereferenceable(16) %9)
  ret i1 %10
}

; Function Attrs: mustprogress uwtable
define linkonce_odr hidden noundef zeroext i1 @_ZN11mpq_managerILb1EE6is_intERK3mpq(ptr noundef nonnull align 8 dereferenceable(32) %0) #4 comdat align 2 {
  %2 = alloca ptr, align 8
  store ptr %0, ptr %2, align 8, !tbaa !60
  %3 = load ptr, ptr %2, align 8, !tbaa !60
  %4 = getelementptr inbounds nuw %class.mpq, ptr %3, i32 0, i32 1
  %5 = call noundef zeroext i1 @_ZN11mpq_managerILb1EE6is_oneERK3mpz(ptr noundef nonnull align 8 dereferenceable(16) %4)
  ret i1 %5
}

; Function Attrs: mustprogress uwtable
define linkonce_odr hidden noundef zeroext i1 @_ZN11mpq_managerILb1EE2ltERK3mpqS3_(ptr noundef nonnull align 8 dereferenceable(728) %0, ptr noundef nonnull align 8 dereferenceable(32) %1, ptr noundef nonnull align 8 dereferenceable(32) %2) #4 comdat align 2 {
  %4 = alloca i1, align 1
  %5 = alloca ptr, align 8
  %6 = alloca ptr, align 8
  %7 = alloca ptr, align 8
  store ptr %0, ptr %5, align 8, !tbaa !19
  store ptr %1, ptr %6, align 8, !tbaa !60
  store ptr %2, ptr %7, align 8, !tbaa !60
  %8 = load ptr, ptr %5, align 8
  %9 = load ptr, ptr %6, align 8, !tbaa !60
  %10 = call noundef zeroext i1 @_ZN11mpq_managerILb1EE6is_intERK3mpq(ptr noundef nonnull align 8 dereferenceable(32) %9)
  br i1 %10, label %11, label %20

11:                                               ; preds = %3
  %12 = load ptr, ptr %7, align 8, !tbaa !60
  %13 = call noundef zeroext i1 @_ZN11mpq_managerILb1EE6is_intERK3mpq(ptr noundef nonnull align 8 dereferenceable(32) %12)
  br i1 %13, label %14, label %20

14:                                               ; preds = %11
  %15 = load ptr, ptr %6, align 8, !tbaa !60
  %16 = getelementptr inbounds nuw %class.mpq, ptr %15, i32 0, i32 0
  %17 = load ptr, ptr %7, align 8, !tbaa !60
  %18 = getelementptr inbounds nuw %class.mpq, ptr %17, i32 0, i32 0
  %19 = call noundef zeroext i1 @_ZN11mpq_managerILb1EE2ltERK3mpzS3_(ptr noundef nonnull align 8 dereferenceable(728) %8, ptr noundef nonnull align 8 dereferenceable(16) %16, ptr noundef nonnull align 8 dereferenceable(16) %18)
  store i1 %19, ptr %4, align 1
  br label %24

20:                                               ; preds = %11, %3
  %21 = load ptr, ptr %6, align 8, !tbaa !60
  %22 = load ptr, ptr %7, align 8, !tbaa !60
  %23 = call noundef zeroext i1 @_ZN11mpq_managerILb1EE6rat_ltERK3mpqS3_(ptr noundef nonnull align 8 dereferenceable(728) %8, ptr noundef nonnull align 8 dereferenceable(32) %21, ptr noundef nonnull align 8 dereferenceable(32) %22)
  store i1 %23, ptr %4, align 1
  br label %24

24:                                               ; preds = %20, %14
  %25 = load i1, ptr %4, align 1
  ret i1 %25
}

; Function Attrs: mustprogress nounwind uwtable
define linkonce_odr hidden noundef nonnull align 8 dereferenceable(728) ptr @_ZN8rational1mEv() #5 comdat align 2 {
  %1 = load ptr, ptr @_ZN8rational13g_mpq_managerE, align 8, !tbaa !19
  ret ptr %1
}

; Function Attrs: inlinehint mustprogress uwtable
define linkonce_odr hidden noundef zeroext i1 @_ZltRK8rationalS1_(ptr noundef nonnull align 8 dereferenceable(32) %0, ptr noundef nonnull align 8 dereferenceable(32) %1) #7 comdat {
  %3 = alloca ptr, align 8
  %4 = alloca ptr, align 8
  store ptr %0, ptr %3, align 8, !tbaa !16
  store ptr %1, ptr %4, align 8, !tbaa !16
  %5 = call noundef nonnull align 8 dereferenceable(728) ptr @_ZN8rational1mEv()
  %6 = load ptr, ptr %3, align 8, !tbaa !16
  %7 = getelementptr inbounds nuw %class.rational, ptr %6, i32 0, i32 0
  %8 = load ptr, ptr %4, align 8, !tbaa !16
  %9 = getelementptr inbounds nuw %class.rational, ptr %8, i32 0, i32 0
  %10 = call noundef zeroext i1 @_ZN11mpq_managerILb1EE2ltERK3mpqS3_(ptr noundef nonnull align 8 dereferenceable(728) %5, ptr noundef nonnull align 8 dereferenceable(32) %7, ptr noundef nonnull align 8 dereferenceable(32) %9)
  ret i1 %10
}

; Function Attrs: mustprogress nounwind uwtable
define linkonce_odr hidden noundef zeroext i1 @_ZNK11ext_numeral11is_infiniteEv(ptr noundef nonnull align 8 dereferenceable(40) %0) #5 comdat align 2 {
  %2 = alloca ptr, align 8
  store ptr %0, ptr %2, align 8, !tbaa !3
  %3 = load ptr, ptr %2, align 8
  %4 = getelementptr inbounds nuw %class.ext_numeral, ptr %3, i32 0, i32 0
  %5 = load i32, ptr %4, align 8, !tbaa !8
  %6 = icmp ne i32 %5, 1
  ret i1 %6
}

; Function Attrs: mustprogress uwtable
define hidden noundef zeroext i1 @_ZltRK11ext_numeralS1_(ptr noundef nonnull align 8 dereferenceable(40) %0, ptr noundef nonnull align 8 dereferenceable(40) %1) #4 {
  %3 = alloca i1, align 1
  %4 = alloca ptr, align 8
  %5 = alloca ptr, align 8
  store ptr %0, ptr %4, align 8, !tbaa !3
  store ptr %1, ptr %5, align 8, !tbaa !3
  %6 = load ptr, ptr %4, align 8, !tbaa !3
  %7 = call noundef zeroext i1 @_ZNK11ext_numeral11is_infiniteEv(ptr noundef nonnull align 8 dereferenceable(40) %6)
  br i1 %7, label %8, label %20

8:                                                ; preds = %2
  %9 = load ptr, ptr %4, align 8, !tbaa !3
  %10 = getelementptr inbounds nuw %class.ext_numeral, ptr %9, i32 0, i32 0
  %11 = load i32, ptr %10, align 8, !tbaa !8
  %12 = icmp eq i32 %11, 0
  br i1 %12, label %13, label %18

13:                                               ; preds = %8
  %14 = load ptr, ptr %5, align 8, !tbaa !3
  %15 = getelementptr inbounds nuw %class.ext_numeral, ptr %14, i32 0, i32 0
  %16 = load i32, ptr %15, align 8, !tbaa !8
  %17 = icmp ne i32 %16, 0
  br label %18

18:                                               ; preds = %13, %8
  %19 = phi i1 [ false, %8 ], [ %17, %13 ]
  store i1 %19, ptr %3, align 1
  br label %34

20:                                               ; preds = %2
  %21 = load ptr, ptr %5, align 8, !tbaa !3
  %22 = call noundef zeroext i1 @_ZNK11ext_numeral11is_infiniteEv(ptr noundef nonnull align 8 dereferenceable(40) %21)
  br i1 %22, label %23, label %28

23:                                               ; preds = %20
  %24 = load ptr, ptr %5, align 8, !tbaa !3
  %25 = getelementptr inbounds nuw %class.ext_numeral, ptr %24, i32 0, i32 0
  %26 = load i32, ptr %25, align 8, !tbaa !8
  %27 = icmp ne i32 %26, 0
  store i1 %27, ptr %3, align 1
  br label %34

28:                                               ; preds = %20
  %29 = load ptr, ptr %4, align 8, !tbaa !3
  %30 = getelementptr inbounds nuw %class.ext_numeral, ptr %29, i32 0, i32 1
  %31 = load ptr, ptr %5, align 8, !tbaa !3
  %32 = getelementptr inbounds nuw %class.ext_numeral, ptr %31, i32 0, i32 1
  %33 = call noundef zeroext i1 @_ZltRK8rationalS1_(ptr noundef nonnull align 8 dereferenceable(32) %30, ptr noundef nonnull align 8 dereferenceable(32) %32)
  store i1 %33, ptr %3, align 1
  br label %34

34:                                               ; preds = %28, %23, %18
  %35 = load i1, ptr %3, align 1
  ret i1 %35
}