; Function Attrs: mustprogress uwtable
define hidden noundef zeroext i1 @_ZltRK11ext_numeralS1_(ptr noundef nonnull align 8 dereferenceable(40) %0, ptr noundef nonnull align 8 dereferenceable(40) %1) local_unnamed_addr #3 {
  %3 = load i32, ptr %0, align 8, !tbaa !3
  %.not = icmp eq i32 %3, 1
  br i1 %.not, label %9, label %4

4:                                                ; preds = %2
  %5 = icmp eq i32 %3, 0
  %6 = load i32, ptr %1, align 8
  %7 = icmp ne i32 %6, 0
  %8 = select i1 %5, i1 %7, i1 false
  br label %_ZltRK8rationalS1_.exit

9:                                                ; preds = %2
  %10 = load i32, ptr %1, align 8, !tbaa !3
  %.not8 = icmp eq i32 %10, 1
  br i1 %.not8, label %13, label %11

11:                                               ; preds = %9
  %12 = icmp ne i32 %10, 0
  br label %_ZltRK8rationalS1_.exit

13:                                               ; preds = %9
  %14 = getelementptr inbounds nuw i8, ptr %0, i64 8
  %15 = getelementptr inbounds nuw i8, ptr %1, i64 8
  %16 = load ptr, ptr @_ZN8rational13g_mpq_managerE, align 8, !tbaa !14
  %17 = getelementptr inbounds nuw i8, ptr %0, i64 24
  %18 = getelementptr inbounds nuw i8, ptr %0, i64 28
  %19 = load i8, ptr %18, align 4
  %20 = and i8 %19, 1
  %21 = icmp eq i8 %20, 0
  %22 = load i32, ptr %17, align 8
  %23 = icmp eq i32 %22, 1
  %24 = select i1 %21, i1 %23, i1 false
  br i1 %24, label %25, label %51

25:                                               ; preds = %13
  %26 = getelementptr inbounds nuw i8, ptr %1, i64 24
  %27 = getelementptr inbounds nuw i8, ptr %1, i64 28
  %28 = load i8, ptr %27, align 4
  %29 = and i8 %28, 1
  %30 = icmp eq i8 %29, 0
  %31 = load i32, ptr %26, align 8
  %32 = icmp eq i32 %31, 1
  %33 = select i1 %30, i1 %32, i1 false
  br i1 %33, label %34, label %51

34:                                               ; preds = %25
  %35 = getelementptr inbounds nuw i8, ptr %0, i64 12
  %36 = load i8, ptr %35, align 4
  %37 = and i8 %36, 1
  %38 = icmp eq i8 %37, 0
  br i1 %38, label %39, label %48

39:                                               ; preds = %34
  %40 = getelementptr inbounds nuw i8, ptr %1, i64 12
  %41 = load i8, ptr %40, align 4
  %42 = and i8 %41, 1
  %43 = icmp eq i8 %42, 0
  br i1 %43, label %44, label %48

44:                                               ; preds = %39
  %45 = load i32, ptr %14, align 8, !tbaa !16
  %46 = load i32, ptr %15, align 8, !tbaa !16
  %47 = icmp slt i32 %45, %46
  br label %_ZltRK8rationalS1_.exit

48:                                               ; preds = %39, %34
  %49 = tail call noundef i32 @_ZN11mpz_managerILb1EE11big_compareERK3mpzS3_(ptr noundef nonnull align 8 dereferenceable(728) %16, ptr noundef nonnull align 8 dereferenceable(32) %14, ptr noundef nonnull align 8 dereferenceable(32) %15)
  %50 = icmp slt i32 %49, 0
  br label %_ZltRK8rationalS1_.exit

51:                                               ; preds = %25, %13
  %52 = tail call noundef zeroext i1 @_ZN11mpq_managerILb1EE6rat_ltERK3mpqS3_(ptr noundef nonnull align 8 dereferenceable(728) %16, ptr noundef nonnull align 8 dereferenceable(32) %14, ptr noundef nonnull align 8 dereferenceable(32) %15)
  br label %_ZltRK8rationalS1_.exit

_ZltRK8rationalS1_.exit:                          ; preds = %51, %48, %44, %11, %4
  %.0 = phi i1 [ %8, %4 ], [ %12, %11 ], [ %52, %51 ], [ %47, %44 ], [ %50, %48 ]
  ret i1 %.0
}